target datalayout = "e-m:e-p270:32:32-p271:32:32-p272:64:64-i64:64-i128:128-f80:128-n8:16:32:64-S128"
target triple = "x86_64-pc-linux-gnu"

; Function Attrs: nounwind uwtable
define internal i32 @archive_read_format_lha_bid(ptr noundef %0, i32 noundef %1) #0 {
  %3 = alloca i32, align 4
  %4 = alloca ptr, align 8
  %5 = alloca i32, align 4
  %6 = alloca ptr, align 8
  %7 = alloca ptr, align 8
  %8 = alloca i64, align 8
  %9 = alloca i64, align 8
  %10 = alloca i64, align 8
  %11 = alloca i64, align 8
  %12 = alloca i32, align 4
  store ptr %0, ptr %4, align 8, !tbaa !9
  store i32 %1, ptr %5, align 4, !tbaa !11
  call void @llvm.lifetime.start.p0(i64 8, ptr %6) #11
  call void @llvm.lifetime.start.p0(i64 8, ptr %7) #11
  call void @llvm.lifetime.start.p0(i64 8, ptr %8) #11
  call void @llvm.lifetime.start.p0(i64 8, ptr %9) #11
  call void @llvm.lifetime.start.p0(i64 8, ptr %10) #11
  call void @llvm.lifetime.start.p0(i64 8, ptr %11) #11
  %13 = load i32, ptr %5, align 4, !tbaa !11
  %14 = icmp sgt i32 %13, 30
  br i1 %14, label %15, label %16

15:                                               ; preds = %2
  store i32 -1, ptr %3, align 4
  store i32 1, ptr %12, align 4
  br label %85

16:                                               ; preds = %2
  %17 = load ptr, ptr %4, align 8, !tbaa !9
  %18 = call ptr @__archive_read_ahead(ptr noundef %17, i64 noundef 22, ptr noundef null)
  store ptr %18, ptr %6, align 8, !tbaa !28
  %19 = icmp eq ptr %18, null
  br i1 %19, label %20, label %21

20:                                               ; preds = %16
  store i32 -1, ptr %3, align 4
  store i32 1, ptr %12, align 4
  br label %85

21:                                               ; preds = %16
  %22 = load ptr, ptr %6, align 8, !tbaa !28
  %23 = call i64 @lha_check_header_format(ptr noundef %22)
  %24 = icmp eq i64 %23, 0
  br i1 %24, label %25, label %26

25:                                               ; preds = %21
  store i32 30, ptr %3, align 4
  store i32 1, ptr %12, align 4
  br label %85

26:                                               ; preds = %21
  %27 = load ptr, ptr %6, align 8, !tbaa !28
  %28 = getelementptr inbounds i8, ptr %27, i64 0
  %29 = load i8, ptr %28, align 1, !tbaa !29
  %30 = sext i8 %29 to i32
  %31 = icmp eq i32 %30, 77
  br i1 %31, label %32, label %84

32:                                               ; preds = %26
  %33 = load ptr, ptr %6, align 8, !tbaa !28
  %34 = getelementptr inbounds i8, ptr %33, i64 1
  %35 = load i8, ptr %34, align 1, !tbaa !29
  %36 = sext i8 %35 to i32
  %37 = icmp eq i32 %36, 90
  br i1 %37, label %38, label %84

38:                                               ; preds = %32
  store i64 0, ptr %9, align 8, !tbaa !30
  store i64 4096, ptr %10, align 8, !tbaa !30
  br label %39

39:                                               ; preds = %77, %56, %38
  %40 = load i64, ptr %9, align 8, !tbaa !30
  %41 = icmp slt i64 %40, 20480
  br i1 %41, label %42, label %83

42:                                               ; preds = %39
  %43 = load ptr, ptr %4, align 8, !tbaa !9
  %44 = load i64, ptr %9, align 8, !tbaa !30
  %45 = load i64, ptr %10, align 8, !tbaa !30
  %46 = add nsw i64 %44, %45
  %47 = call ptr @__archive_read_ahead(ptr noundef %43, i64 noundef %46, ptr noundef %8)
  store ptr %47, ptr %7, align 8, !tbaa !31
  %48 = load ptr, ptr %7, align 8, !tbaa !31
  %49 = icmp eq ptr %48, null
  br i1 %49, label %50, label %57

50:                                               ; preds = %42
  %51 = load i64, ptr %10, align 8, !tbaa !30
  %52 = ashr i64 %51, 1
  store i64 %52, ptr %10, align 8, !tbaa !30
  %53 = load i64, ptr %10, align 8, !tbaa !30
  %54 = icmp slt i64 %53, 25
  br i1 %54, label %55, label %56

55:                                               ; preds = %50
  store i32 0, ptr %3, align 4
  store i32 1, ptr %12, align 4
  br label %85

56:                                               ; preds = %50
  br label %39, !llvm.loop !32

57:                                               ; preds = %42
  %58 = load ptr, ptr %7, align 8, !tbaa !31
  %59 = load i64, ptr %9, align 8, !tbaa !30
  %60 = getelementptr inbounds i8, ptr %58, i64 %59
  store ptr %60, ptr %6, align 8, !tbaa !28
  br label %61

61:                                               ; preds = %73, %57
  %62 = load ptr, ptr %6, align 8, !tbaa !28
  %63 = getelementptr inbounds i8, ptr %62, i64 22
  %64 = load ptr, ptr %7, align 8, !tbaa !31
  %65 = load i64, ptr %8, align 8, !tbaa !30
  %66 = getelementptr inbounds i8, ptr %64, i64 %65
  %67 = icmp ult ptr %63, %66
  br i1 %67, label %68, label %77

68:                                               ; preds = %61
  %69 = load ptr, ptr %6, align 8, !tbaa !28
  %70 = call i64 @lha_check_header_format(ptr noundef %69)
  store i64 %70, ptr %11, align 8, !tbaa !30
  %71 = icmp eq i64 %70, 0
  br i1 %71, label %72, label %73

72:                                               ; preds = %68
  store i32 30, ptr %3, align 4
  store i32 1, ptr %12, align 4
  br label %85

73:                                               ; preds = %68
  %74 = load i64, ptr %11, align 8, !tbaa !30
  %75 = load ptr, ptr %6, align 8, !tbaa !28
  %76 = getelementptr inbounds nuw i8, ptr %75, i64 %74
  store ptr %76, ptr %6, align 8, !tbaa !28
  br label %61, !llvm.loop !34

77:                                               ; preds = %61
  %78 = load ptr, ptr %6, align 8, !tbaa !28
  %79 = load ptr, ptr %7, align 8, !tbaa !31
  %80 = ptrtoint ptr %78 to i64
  %81 = ptrtoint ptr %79 to i64
  %82 = sub i64 %80, %81
  store i64 %82, ptr %9, align 8, !tbaa !30
  br label %39, !llvm.loop !32

83:                                               ; preds = %39
  br label %84

84:                                               ; preds = %83, %32, %26
  store i32 0, ptr %3, align 4
  store i32 1, ptr %12, align 4
  br label %85

85:                                               ; preds = %84, %72, %55, %25, %20, %15
  call void @llvm.lifetime.end.p0(i64 8, ptr %11) #11
  call void @llvm.lifetime.end.p0(i64 8, ptr %10) #11
  call void @llvm.lifetime.end.p0(i64 8, ptr %9) #11
  call void @llvm.lifetime.end.p0(i64 8, ptr %8) #11
  call void @llvm.lifetime.end.p0(i64 8, ptr %7) #11
  call void @llvm.lifetime.end.p0(i64 8, ptr %6) #11
  %86 = load i32, ptr %3, align 4
  ret i32 %86
}