; Function Attrs: nounwind uwtable
define internal range(i32 -1, 31) i32 @archive_read_format_lha_bid(ptr noundef %0, i32 noundef %1) #0 {
  %3 = alloca i64, align 8
  call void @llvm.lifetime.start.p0(i64 8, ptr nonnull %3) #18
  %4 = icmp sgt i32 %1, 30
  br i1 %4, label %.loopexit, label %5

5:                                                ; preds = %2
  %6 = tail call ptr @__archive_read_ahead(ptr noundef %0, i64 noundef 22, ptr noundef null) #18
  %7 = icmp eq ptr %6, null
  br i1 %7, label %.loopexit, label %8

8:                                                ; preds = %5
  %9 = tail call fastcc i64 @lha_check_header_format(ptr noundef %6)
  %10 = icmp eq i64 %9, 0
  br i1 %10, label %.loopexit, label %11

11:                                               ; preds = %8
  %12 = load i8, ptr %6, align 1, !tbaa !4
  %13 = icmp eq i8 %12, 77
  br i1 %13, label %14, label %.loopexit

14:                                               ; preds = %11
  %15 = getelementptr inbounds nuw i8, ptr %6, i64 1
  %16 = load i8, ptr %15, align 1, !tbaa !4
  %17 = icmp eq i8 %16, 90
  br i1 %17, label %.outer.split.preheader, label %.loopexit

.outer.split.preheader:                           ; preds = %14, %._crit_edge
  %.021.ph48 = phi i64 [ %.021, %._crit_edge ], [ 4096, %14 ]
  %.022.ph47 = phi i64 [ %38, %._crit_edge ], [ 0, %14 ]
  br label %.outer.split

.outer.split:                                     ; preds = %.outer.split.preheader, %21
  %.021 = phi i64 [ %22, %21 ], [ %.021.ph48, %.outer.split.preheader ]
  %18 = add nsw i64 %.021, %.022.ph47
  %19 = call ptr @__archive_read_ahead(ptr noundef %0, i64 noundef %18, ptr noundef nonnull %3) #18
  %20 = icmp eq ptr %19, null
  br i1 %20, label %21, label %24

21:                                               ; preds = %.outer.split
  %22 = lshr i64 %.021, 1
  %23 = icmp samesign ult i64 %.021, 50
  br i1 %23, label %.loopexit, label %.outer.split, !llvm.loop !7

24:                                               ; preds = %.outer.split
  %25 = getelementptr inbounds i8, ptr %19, i64 %.022.ph47
  %26 = load i64, ptr %3, align 8, !tbaa !9
  %27 = getelementptr inbounds i8, ptr %19, i64 %26
  %28 = getelementptr inbounds nuw i8, ptr %25, i64 22
  %29 = icmp ult ptr %28, %27
  br i1 %29, label %.lr.ph, label %._crit_edge

.lr.ph:                                           ; preds = %24, %32
  %.02331 = phi ptr [ %33, %32 ], [ %25, %24 ]
  %30 = call fastcc i64 @lha_check_header_format(ptr noundef %.02331)
  %31 = icmp eq i64 %30, 0
  br i1 %31, label %.loopexit, label %32

32:                                               ; preds = %.lr.ph
  %33 = getelementptr inbounds nuw i8, ptr %.02331, i64 %30
  %34 = getelementptr inbounds nuw i8, ptr %33, i64 22
  %35 = icmp ult ptr %34, %27
  br i1 %35, label %.lr.ph, label %._crit_edge, !llvm.loop !11

._crit_edge:                                      ; preds = %32, %24
  %.023.lcssa = phi ptr [ %25, %24 ], [ %33, %32 ]
  %36 = ptrtoint ptr %.023.lcssa to i64
  %37 = ptrtoint ptr %19 to i64
  %38 = sub i64 %36, %37
  %39 = icmp slt i64 %38, 20480
  br i1 %39, label %.outer.split.preheader, label %.loopexit, !llvm.loop !7

.loopexit:                                        ; preds = %._crit_edge, %21, %.lr.ph, %11, %14, %8, %5, %2
  %.0 = phi i32 [ -1, %2 ], [ -1, %5 ], [ 30, %8 ], [ 0, %14 ], [ 0, %11 ], [ 30, %.lr.ph ], [ 0, %21 ], [ 0, %._crit_edge ]
  call void @llvm.lifetime.end.p0(i64 8, ptr nonnull %3) #18
  ret i32 %.0
}